---
triple:          'arm64-apple-darwin'
binary-path:     '/Users/george/Documents/AdventOfCode2024/AdventOfCode/Day8/day8'
relocations:
  - { offsetInCU: 0xD71A, offset: 0xD71A, size: 0x8, addend: 0x0, symName: __ZNSt3__17getlineB7v160006IcNS_11char_traitsIcEENS_9allocatorIcEEEERNS_13basic_istreamIT_T0_EES9_RNS_12basic_stringIS6_S7_T1_EES6_, symObjAddr: 0x11FC, symBinAddr: 0x100003778, symSize: 0x188 }
  - { offsetInCU: 0xDF39, offset: 0xDF39, size: 0x8, addend: 0x0, symName: __ZNSt3__120__throw_length_errorB7v160006EPKc, symObjAddr: 0x1398, symBinAddr: 0x100003914, symSize: 0x50 }
  - { offsetInCU: 0xE468, offset: 0xE468, size: 0x8, addend: 0x0, symName: __ZSt28__throw_bad_array_new_lengthB7v160006v, symObjAddr: 0x140C, symBinAddr: 0x100003988, symSize: 0x28 }
  - { offsetInCU: 0x11C86, offset: 0x11C86, size: 0x8, addend: 0x0, symName: __ZN3aoc16read_antenna_mapEv, symObjAddr: 0x0, symBinAddr: 0x10000257C, symSize: 0x448 }
  - { offsetInCU: 0x12C0C, offset: 0x12C0C, size: 0x8, addend: 0x0, symName: __ZN3aoc17print_antenna_mapERKNSt3__16vectorINS1_IcNS0_9allocatorIcEEEENS2_IS4_EEEE, symObjAddr: 0x620, symBinAddr: 0x100002B9C, symSize: 0x8C }
  - { offsetInCU: 0x12D17, offset: 0x12D17, size: 0x8, addend: 0x0, symName: __ZN3aoc16count_anti_nodesERKNSt3__16vectorIbNS0_9allocatorIbEEEE, symObjAddr: 0x6AC, symBinAddr: 0x100002C28, symSize: 0x74 }
  - { offsetInCU: 0x12D3E, offset: 0x12D3E, size: 0x8, addend: 0x0, symName: __ZN3aoc16count_anti_nodesERKNSt3__16vectorIbNS0_9allocatorIbEEEE, symObjAddr: 0x6AC, symBinAddr: 0x100002C28, symSize: 0x74 }
  - { offsetInCU: 0x12D6E, offset: 0x12D6E, size: 0x8, addend: 0x0, symName: __ZN3aoc16count_anti_nodesERKNSt3__16vectorIbNS0_9allocatorIbEEEE, symObjAddr: 0x6AC, symBinAddr: 0x100002C28, symSize: 0x74 }
  - { offsetInCU: 0x12DC7, offset: 0x12DC7, size: 0x8, addend: 0x0, symName: __ZN3aoc9in_boundsEiiii, symObjAddr: 0x720, symBinAddr: 0x100002C9C, symSize: 0x1C }
  - { offsetInCU: 0x12E38, offset: 0x12E38, size: 0x8, addend: 0x0, symName: __ZN3aoc28populate_anti_nodes_for_freqERKNSt3__16vectorIiNS0_9allocatorIiEEEERKNS1_INS1_IcNS2_IcEEEENS2_IS8_EEEEiiRNS1_IbNS2_IbEEEESF_, symObjAddr: 0x73C, symBinAddr: 0x100002CB8, symSize: 0x220 }
  - { offsetInCU: 0x13237, offset: 0x13237, size: 0x8, addend: 0x0, symName: __ZN3aoc19populate_anti_nodesERKNSt3__16vectorINS1_IiNS0_9allocatorIiEEEENS2_IS4_EEEERKNS1_INS1_IcNS2_IcEEEENS2_ISA_EEEEiiRNS1_IbNS2_IbEEEESH_, symObjAddr: 0x95C, symBinAddr: 0x100002ED8, symSize: 0x78 }
  - { offsetInCU: 0x1332E, offset: 0x1332E, size: 0x8, addend: 0x0, symName: __ZN3aoc33print_antenna_map_with_anti_nodesERKNSt3__16vectorINS1_IcNS0_9allocatorIcEEEENS2_IS4_EEEENS1_IbNS2_IbEEEE, symObjAddr: 0x9D4, symBinAddr: 0x100002F50, symSize: 0x100 }
  - { offsetInCU: 0x13544, offset: 0x13544, size: 0x8, addend: 0x0, symName: __ZNSt3__114basic_ifstreamIcNS_11char_traitsIcEEEC1EPKcj, symObjAddr: 0x448, symBinAddr: 0x1000029C4, symSize: 0x10C }
  - { offsetInCU: 0x13629, offset: 0x13629, size: 0x8, addend: 0x0, symName: __ZNSt3__16vectorINS0_IcNS_9allocatorIcEEEENS1_IS3_EEE21__push_back_slow_pathIS3_EEvOT_, symObjAddr: 0x1434, symBinAddr: 0x1000039B0, symSize: 0x178 }
  - { offsetInCU: 0x13C54, offset: 0x13C54, size: 0x8, addend: 0x0, symName: __ZNKSt3__16vectorINS0_IcNS_9allocatorIcEEEENS1_IS3_EEE20__throw_length_errorB7v160006Ev, symObjAddr: 0x15AC, symBinAddr: 0x100003B28, symSize: 0x14 }
  - { offsetInCU: 0x13C68, offset: 0x13C68, size: 0x8, addend: 0x0, symName: __ZNKSt3__16vectorIcNS_9allocatorIcEEE20__throw_length_errorB7v160006Ev, symObjAddr: 0x1384, symBinAddr: 0x100003900, symSize: 0x14 }
  - { offsetInCU: 0x13C92, offset: 0x13C92, size: 0x8, addend: 0x0, symName: __ZNSt3__120__throw_length_errorB7v160006EPKc, symObjAddr: 0x1398, symBinAddr: 0x100003914, symSize: 0x50 }
  - { offsetInCU: 0x13C9D, offset: 0x13C9D, size: 0x8, addend: 0x0, symName: __ZNSt3__16vectorINS0_IcNS_9allocatorIcEEEENS1_IS3_EEED1B7v160006Ev, symObjAddr: 0x554, symBinAddr: 0x100002AD0, symSize: 0x74 }
  - { offsetInCU: 0x13F79, offset: 0x13F79, size: 0x8, addend: 0x0, symName: __ZNSt3__114basic_ifstreamIcNS_11char_traitsIcEEED1Ev, symObjAddr: 0x5C8, symBinAddr: 0x100002B44, symSize: 0x58 }
  - { offsetInCU: 0x14AE3, offset: 0x14AE3, size: 0x8, addend: 0x0, symName: _main, symObjAddr: 0xAD4, symBinAddr: 0x100003050, symSize: 0x5DC }
  - { offsetInCU: 0x16001, offset: 0x16001, size: 0x8, addend: 0x0, symName: __ZNSt3__16vectorINS0_IiNS_9allocatorIiEEEENS1_IS3_EEEC1Em, symObjAddr: 0x10B0, symBinAddr: 0x10000362C, symSize: 0xCC }
  - { offsetInCU: 0x16274, offset: 0x16274, size: 0x8, addend: 0x0, symName: __ZNKSt3__16vectorIiNS_9allocatorIiEEE20__throw_length_errorB7v160006Ev, symObjAddr: 0x15D4, symBinAddr: 0x100003B50, symSize: 0x14 }
  - { offsetInCU: 0x1629E, offset: 0x1629E, size: 0x8, addend: 0x0, symName: __ZNKSt3__16vectorIbNS_9allocatorIbEEE20__throw_length_errorB7v160006Ev, symObjAddr: 0x15E8, symBinAddr: 0x100003B64, symSize: 0x14 }
  - { offsetInCU: 0x162A9, offset: 0x162A9, size: 0x8, addend: 0x0, symName: __ZNKSt3__16vectorIbNS_9allocatorIbEEE20__throw_length_errorB7v160006Ev, symObjAddr: 0x15E8, symBinAddr: 0x100003B64, symSize: 0x14 }
  - { offsetInCU: 0x162D3, offset: 0x162D3, size: 0x8, addend: 0x0, symName: __ZNSt3__16vectorINS0_IiNS_9allocatorIiEEEENS1_IS3_EEEC1Em.cold.1, symObjAddr: 0x15FC, symBinAddr: 0x100003B78, symSize: 0x64 }
  - { offsetInCU: 0x162DE, offset: 0x162DE, size: 0x8, addend: 0x0, symName: __ZNSt3__16vectorINS0_IiNS_9allocatorIiEEEENS1_IS3_EEED1B7v160006Ev, symObjAddr: 0x117C, symBinAddr: 0x1000036F8, symSize: 0x74 }
  - { offsetInCU: 0x167A8, offset: 0x167A8, size: 0x8, addend: 0x0, symName: __ZNKSt3__16vectorINS0_IiNS_9allocatorIiEEEENS1_IS3_EEE20__throw_length_errorB7v160006Ev, symObjAddr: 0x15C0, symBinAddr: 0x100003B3C, symSize: 0x14 }
  - { offsetInCU: 0x167D2, offset: 0x167D2, size: 0x8, addend: 0x0, symName: __ZNKSt3__16vectorIiNS_9allocatorIiEEE20__throw_length_errorB7v160006Ev, symObjAddr: 0x15D4, symBinAddr: 0x100003B50, symSize: 0x14 }
  - { offsetInCU: 0x167DD, offset: 0x167DD, size: 0x8, addend: 0x0, symName: __ZNSt3__16vectorINS0_IiNS_9allocatorIiEEEENS1_IS3_EEEC1Em.cold.1, symObjAddr: 0x15FC, symBinAddr: 0x100003B78, symSize: 0x64 }
  - { offsetInCU: 0x16BE9, offset: 0x16BE9, size: 0x8, addend: 0x0, symName: __ZNSt12length_errorC1B7v160006EPKc, symObjAddr: 0x13E8, symBinAddr: 0x100003964, symSize: 0x24 }
  - { offsetInCU: 0x16E35, offset: 0x16E35, size: 0x8, addend: 0x0, symName: __ZNKSt3__16vectorINS0_IcNS_9allocatorIcEEEENS1_IS3_EEE20__throw_length_errorB7v160006Ev, symObjAddr: 0x15AC, symBinAddr: 0x100003B28, symSize: 0x14 }
  - { offsetInCU: 0x16E5F, offset: 0x16E5F, size: 0x8, addend: 0x0, symName: __ZNKSt3__16vectorINS0_IiNS_9allocatorIiEEEENS1_IS3_EEE20__throw_length_errorB7v160006Ev, symObjAddr: 0x15C0, symBinAddr: 0x100003B3C, symSize: 0x14 }
...
